#include <math.h>
#include <stdio.h>
#include <stdlib.h>
#include <string.h>
#include <iostream>
using namespace std;

//*********************************
//****?????? 1200012772     *
//****???2012?11?2 ?        *
//****???????????      *
//*********************************

int main()
{
	int n = 0;  //n?????????(1<=n<=100000)
	cin >> n;    //????????? 
	int a[100001];     //????
	int i = 0;    //??i?????
	for (i = 0; i < n; i++) //????????
	{
		cin >> a[i];
	}
	int k;      //k?????????
	cin >> k;  //??k
	i = 0;
	int count =0, j = 0;  //count??????k???,j?????
	while (i < n)
	{
		if (a[i] == k)   //????????k????
		{
			for (j = i; j < n; j++)
			{
				a[j] = a[j+1];
			}
			count = count +1;   //??k???????
		}
		else
			i++;
	}
	
	for (i = 0; i < (n - count - 1); i++)
	{
		cout << a[i] << " ";     //????
	}
	cout << a[n - count - 1] << endl;   //????
	
	return 0;
}








